; Function Attrs: nounwind uwtable
define ptr @l___private_Lean_Meta_Tactic_Grind_CasesMatch_0__Lean_Meta_Grind_addMatchCondsToSplitter(ptr noundef %0, ptr noundef %1) local_unnamed_addr #1 {
  %3 = ptrtoint ptr %1 to i64
  %4 = and i64 %3, 1
  %.not = icmp eq i64 %4, 0
  br i1 %.not, label %lean_nat_eq.exit, label %5, !prof !15

5:                                                ; preds = %2
  %6 = icmp eq ptr %1, inttoptr (i64 1 to ptr)
  br i1 %6, label %10, label %8

lean_nat_eq.exit:                                 ; preds = %2
  %7 = tail call zeroext i1 @lean_nat_big_eq(ptr noundef %1, ptr noundef nonnull inttoptr (i64 1 to ptr)) #4
  br i1 %7, label %10, label %8

8:                                                ; preds = %5, %lean_nat_eq.exit
  %9 = tail call ptr @l___private_Lean_Meta_Tactic_Grind_CasesMatch_0__Lean_Meta_Grind_addMatchCondsToSplitter___lambda__1(ptr noundef %0, ptr noundef %1, ptr nonnull poison)
  br label %10

10:                                               ; preds = %5, %lean_nat_eq.exit, %8
  %.0 = phi ptr [ %9, %8 ], [ %0, %lean_nat_eq.exit ], [ %0, %5 ]
  ret ptr %.0
}